Certificate:
    Data:
        Version: 3 (0x2)
        Serial Number: 4101 (0x1005)
    Signature Algorithm: sha256WithRSAEncryption
        Issuer: C=CN, ST=GZ, L=gz, O=gz, OU=gz, CN=karonl 3 certs
        Validity
            Not Before: Jan 31 14:37:39 2018 GMT
            Not After : Feb 10 14:37:39 2019 GMT
        Subject: C=CN, ST=GZ, O=gz, OU=karonl, CN=github.com
        Subject Public Key Info:
            Public Key Algorithm: rsaEncryption
                Public-Key: (2048 bit)
                Modulus:
                    00:ae:23:84:37:69:c9:42:c3:3d:96:8e:56:aa:f9:
                    cc:fc:07:ef:f1:18:4f:21:6b:14:66:1f:32:fd:6b:
                    6b:c7:1e:46:4f:92:cb:53:19:03:30:6b:57:94:8c:
                    b0:17:ca:8d:9a:9f:f2:1e:05:ee:d0:db:40:0a:ad:
                    e5:df:a1:bc:34:62:1e:c9:c7:1d:ea:9b:44:ec:4c:
                    8c:f0:3d:44:a6:a5:69:51:70:7d:0c:22:f4:ae:f4:
                    3b:9e:3a:80:2b:8d:ca:e2:27:03:8f:d0:d4:90:1f:
                    ec:54:c4:97:cc:8e:97:bb:d7:c3:3e:04:61:0d:03:
                    22:16:c9:35:e2:77:cb:fd:92:a7:35:9d:cb:40:f8:
                    18:65:72:87:2b:4b:b1:a5:c6:43:70:50:af:13:eb:
                    71:de:5c:f8:ca:cd:15:29:1f:78:e7:fe:e8:7a:84:
                    ca:fb:fa:dd:86:10:93:e5:e5:37:dc:5f:53:05:10:
                    72:52:24:95:21:8f:63:1c:1f:35:16:0b:23:09:83:
                    fc:28:c1:db:c5:8a:14:36:b6:90:13:f0:6e:f2:7e:
                    5c:cc:0f:ee:a3:63:68:c9:12:7d:41:6d:3d:da:a0:
                    2c:35:c7:ef:40:ad:b9:2a:81:31:96:22:a2:2e:c9:
                    7e:10:a3:ae:cd:33:2e:20:f1:a3:f6:8c:3f:36:49:
                    30:63
                Exponent: 65537 (0x10001)
        X509v3 extensions:
            X509v3 Subject Alternative Name: 
                DNS:github.com, DNS:www.baidu.com, DNS:baidu.com, DNS:wx.qq.com, DNS:szextshort.weixin.qq.com
    Signature Algorithm: sha256WithRSAEncryption
         6a:85:fe:06:cf:f9:c6:87:41:0f:9b:c4:c2:93:62:a2:71:7c:
         fa:b8:0a:e9:64:36:bd:75:40:5d:9e:dd:d0:ee:33:fa:e6:8e:
         f2:1d:8f:16:af:84:31:fe:5e:a2:d0:b9:ed:fd:0c:f1:dd:df:
         51:00:b2:75:ef:04:30:2c:7d:82:87:d3:b8:2c:2d:b8:a7:e1:
         05:c7:77:6b:22:51:1b:64:73:96:c1:bc:ca:85:b1:6a:15:f6:
         eb:30:51:43:c8:bd:cd:39:ae:63:9a:6d:63:b3:94:c5:1f:89:
         14:3d:7d:2a:b1:10:86:98:66:df:3f:85:35:99:95:ca:4d:4a:
         2f:75:fa:95:96:36:b1:35:c0:40:39:8b:ed:29:bc:99:ed:17:
         c4:88:00:77:65:c4:33:54:4a:77:24:ca:f9:5d:1a:ab:d3:07:
         05:5d:a7:f2:b8:76:ea:27:46:30:88:3c:f1:7d:33:f1:07:f1:
         1c:4f:e0:13:b0:51:8e:05:75:8b:bf:13:22:5a:9e:5a:55:90:
         83:3e:c4:28:e4:15:23:66:61:fa:92:8e:9b:a3:4a:8a:2e:10:
         59:6a:c5:9f:98:50:cd:8b:4b:11:82:af:5e:e4:e3:13:74:d6:
         7b:c2:31:37:35:74:92:aa:1b:2d:11:d6:d0:31:76:c6:d3:1b:
         2a:eb:06:86:b6:a2:e4:c5:95:5b:fb:38:ce:68:37:ee:85:17:
         de:67:51:0a:a5:59:e8:63:c9:8b:f8:22:ca:7c:c9:96:39:ab:
         02:39:18:54:af:55:15:50:0c:f3:7a:36:fe:2a:b4:11:40:56:
         6a:f5:f4:72:8b:d7:1f:e4:76:86:2e:e4:b7:c7:a1:9b:60:94:
         b9:1b:ae:1a:3a:84:5f:80:1a:b2:54:61:9d:c0:e2:3e:e2:b0:
         bb:ce:73:cc:ff:99:cc:4a:89:77:31:d9:c2:e2:36:91:99:83:
         60:d8:62:47:bf:c4:37:bb:69:4e:a4:8b:a4:1b:9f:05:d4:33:
         4a:98:08:9d:c6:81:2e:c0:a9:ad:dc:ed:98:db:a2:53:64:b6:
         e7:5b:39:06:50:74:dd:b9:a3:f9:73:41:95:d9:8c:e5:af:84:
         25:bd:d4:57:c1:53:5e:a0:e4:c0:f2:c0:aa:8d:0c:0b:8d:1d:
         ce:dd:32:f2:50:91:f6:fe:e9:5f:c2:36:69:f6:ad:c3:4f:2c:
         d8:db:9c:b4:b8:5d:b3:73:37:87:de:6b:2e:4f:75:e3:42:e2:
         b0:2d:b8:64:bf:5a:14:92:f0:a7:a6:ea:38:69:c4:7a:05:63:
         f3:b2:34:48:b1:c8:c4:df:91:52:04:00:b4:4c:23:0b:2f:78:
         fc:e1:9f:3f:ef:6a:84:8e
-----BEGIN CERTIFICATE-----
MIIEezCCAmOgAwIBAgICEAUwDQYJKoZIhvcNAQELBQAwWjELMAkGA1UEBhMCQ04x
CzAJBgNVBAgMAkdaMQswCQYDVQQHDAJnejELMAkGA1UECgwCZ3oxCzAJBgNVBAsM
Amd6MRcwFQYDVQQDDA5rYXJvbmwgMyBjZXJ0czAeFw0xODAxMzExNDM3MzlaFw0x
OTAyMTAxNDM3MzlaME0xCzAJBgNVBAYTAkNOMQswCQYDVQQIDAJHWjELMAkGA1UE
CgwCZ3oxDzANBgNVBAsMBmthcm9ubDETMBEGA1UEAwwKZ2l0aHViLmNvbTCCASIw
DQYJKoZIhvcNAQEBBQADggEPADCCAQoCggEBAK4jhDdpyULDPZaOVqr5zPwH7/EY
TyFrFGYfMv1ra8ceRk+Sy1MZAzBrV5SMsBfKjZqf8h4F7tDbQAqt5d+hvDRiHsnH
HeqbROxMjPA9RKalaVFwfQwi9K70O546gCuNyuInA4/Q1JAf7FTEl8yOl7vXwz4E
YQ0DIhbJNeJ3y/2SpzWdy0D4GGVyhytLsaXGQ3BQrxPrcd5c+MrNFSkfeOf+6HqE
yvv63YYQk+XlN9xfUwUQclIklSGPYxwfNRYLIwmD/CjB28WKFDa2kBPwbvJ+XMwP
7qNjaMkSfUFtPdqgLDXH70CtuSqBMZYioi7JfhCjrs0zLiDxo/aMPzZJMGMCAwEA
AaNYMFYwVAYDVR0RBE0wS4IKZ2l0aHViLmNvbYINd3d3LmJhaWR1LmNvbYIJYmFp
ZHUuY29tggl3eC5xcS5jb22CGHN6ZXh0c2hvcnQud2VpeGluLnFxLmNvbTANBgkq
hkiG9w0BAQsFAAOCAgEAaoX+Bs/5xodBD5vEwpNionF8+rgK6WQ2vXVAXZ7d0O4z
+uaO8h2PFq+EMf5eotC57f0M8d3fUQCyde8EMCx9gofTuCwtuKfhBcd3ayJRG2Rz
lsG8yoWxahX26zBRQ8i9zTmuY5ptY7OUxR+JFD19KrEQhphm3z+FNZmVyk1KL3X6
lZY2sTXAQDmL7Sm8me0XxIgAd2XEM1RKdyTK+V0aq9MHBV2n8rh26idGMIg88X0z
8QfxHE/gE7BRjgV1i78TIlqeWlWQgz7EKOQVI2Zh+pKOm6NKii4QWWrFn5hQzYtL
EYKvXuTjE3TWe8IxNzV0kqobLRHW0DF2xtMbKusGhrai5MWVW/s4zmg37oUX3mdR
CqVZ6GPJi/giynzJljmrAjkYVK9VFVAM83o2/iq0EUBWavX0covXH+R2hi7kt8eh
m2CUuRuuGjqEX4AaslRhncDiPuKwu85zzP+ZzEqJdzHZwuI2kZmDYNhiR7/EN7tp
TqSLpBufBdQzSpgIncaBLsCprdztmNuiU2S251s5BlB03bmj+XNBldmM5a+EJb3U
V8FTXqDkwPLAqo0MC40dzt0y8lCR9v7pX8I2afatw08s2NuctLhds3M3h95rLk91
40LisC24ZL9aFJLwp6bqOGnEegVj87I0SLHIxN+RUgQAtEwjCy94/OGfP+9qhI4=
-----END CERTIFICATE-----
